target datalayout = "e-m:e-p270:32:32-p271:32:32-p272:64:64-i64:64-i128:128-f80:128-n8:16:32:64-S128"
target triple = "x86_64-pc-linux-gnu"

%struct.tr2_tgt = type { ptr, ptr, ptr, ptr, ptr, ptr, ptr, ptr, ptr, ptr, ptr, ptr, ptr, ptr, ptr, ptr, ptr, ptr, ptr, ptr, ptr, ptr, ptr, ptr, ptr, ptr, ptr, ptr, ptr, ptr }
%struct.__va_list_tag = type { i32, i32, ptr, ptr }

@trace2_enabled = internal global i32 0, align 4
@tr2_tgt_builtins = internal global [4 x ptr] [ptr @tr2_tgt_normal, ptr @tr2_tgt_perf, ptr @tr2_tgt_event, ptr null], align 16

; Function Attrs: nounwind uwtable
define dso_local void @trace2_region_enter_printf_va_fl(ptr noundef %0, i32 noundef %1, ptr noundef %2, ptr noundef %3, ptr noundef %4, ptr noundef %5, ptr noundef %6) #0 {
  %8 = alloca ptr, align 8
  %9 = alloca i32, align 4
  %10 = alloca ptr, align 8
  %11 = alloca ptr, align 8
  %12 = alloca ptr, align 8
  %13 = alloca ptr, align 8
  %14 = alloca ptr, align 8
  %15 = alloca ptr, align 8
  %16 = alloca i32, align 4
  %17 = alloca i64, align 8
  %18 = alloca i64, align 8
  %19 = alloca i32, align 4
  store ptr %0, ptr %8, align 8, !tbaa !4
  store i32 %1, ptr %9, align 4, !tbaa !9
  store ptr %2, ptr %10, align 8, !tbaa !4
  store ptr %3, ptr %11, align 8, !tbaa !4
  store ptr %4, ptr %12, align 8, !tbaa !72
  store ptr %5, ptr %13, align 8, !tbaa !4
  store ptr %6, ptr %14, align 8, !tbaa !38
  call void @llvm.lifetime.start.p0(i64 8, ptr %15) #9
  call void @llvm.lifetime.start.p0(i64 4, ptr %16) #9
  call void @llvm.lifetime.start.p0(i64 8, ptr %17) #9
  call void @llvm.lifetime.start.p0(i64 8, ptr %18) #9
  %20 = load i32, ptr @trace2_enabled, align 4, !tbaa !9
  %21 = icmp ne i32 %20, 0
  br i1 %21, label %23, label %22

22:                                               ; preds = %7
  store i32 1, ptr %19, align 4
  br label %69

23:                                               ; preds = %7
  %24 = call i64 @getnanotime()
  %25 = udiv i64 %24, 1000
  store i64 %25, ptr %17, align 8, !tbaa !21
  %26 = load i64, ptr %17, align 8, !tbaa !21
  %27 = call i64 @tr2tls_absolute_elapsed(i64 noundef %26)
  store i64 %27, ptr %18, align 8, !tbaa !21
  store i32 0, ptr %16, align 4, !tbaa !9
  %28 = load i32, ptr %16, align 4, !tbaa !9
  %29 = sext i32 %28 to i64
  %30 = getelementptr inbounds [4 x ptr], ptr @tr2_tgt_builtins, i64 0, i64 %29
  %31 = load ptr, ptr %30, align 8, !tbaa !11
  store ptr %31, ptr %15, align 8, !tbaa !11
  br label %32

32:                                               ; preds = %60, %23
  %33 = load ptr, ptr %15, align 8, !tbaa !11
  %34 = icmp ne ptr %33, null
  br i1 %34, label %35, label %67

35:                                               ; preds = %32
  %36 = load ptr, ptr %15, align 8, !tbaa !11
  %37 = getelementptr inbounds nuw %struct.tr2_tgt, ptr %36, i32 0, i32 0
  %38 = load ptr, ptr %37, align 8, !tbaa !13
  %39 = call i32 @tr2_dst_trace_want(ptr noundef %38)
  %40 = icmp ne i32 %39, 0
  br i1 %40, label %41, label %59

41:                                               ; preds = %35
  %42 = load ptr, ptr %15, align 8, !tbaa !11
  %43 = getelementptr inbounds nuw %struct.tr2_tgt, ptr %42, i32 0, i32 23
  %44 = load ptr, ptr %43, align 8, !tbaa !113
  %45 = icmp ne ptr %44, null
  br i1 %45, label %46, label %58

46:                                               ; preds = %41
  %47 = load ptr, ptr %15, align 8, !tbaa !11
  %48 = getelementptr inbounds nuw %struct.tr2_tgt, ptr %47, i32 0, i32 23
  %49 = load ptr, ptr %48, align 8, !tbaa !113
  %50 = load ptr, ptr %8, align 8, !tbaa !4
  %51 = load i32, ptr %9, align 4, !tbaa !9
  %52 = load i64, ptr %18, align 8, !tbaa !21
  %53 = load ptr, ptr %10, align 8, !tbaa !4
  %54 = load ptr, ptr %11, align 8, !tbaa !4
  %55 = load ptr, ptr %12, align 8, !tbaa !72
  %56 = load ptr, ptr %13, align 8, !tbaa !4
  %57 = load ptr, ptr %14, align 8, !tbaa !38
  call void %49(ptr noundef %50, i32 noundef %51, i64 noundef %52, ptr noundef %53, ptr noundef %54, ptr noundef %55, ptr noundef %56, ptr noundef %57)
  br label %58

58:                                               ; preds = %46, %41
  br label %59

59:                                               ; preds = %58, %35
  br label %60

60:                                               ; preds = %59
  %61 = load i32, ptr %16, align 4, !tbaa !9
  %62 = add nsw i32 %61, 1
  store i32 %62, ptr %16, align 4, !tbaa !9
  %63 = load i32, ptr %16, align 4, !tbaa !9
  %64 = sext i32 %63 to i64
  %65 = getelementptr inbounds [4 x ptr], ptr @tr2_tgt_builtins, i64 0, i64 %64
  %66 = load ptr, ptr %65, align 8, !tbaa !11
  store ptr %66, ptr %15, align 8, !tbaa !11
  br label %32, !llvm.loop !114

67:                                               ; preds = %32
  %68 = load i64, ptr %17, align 8, !tbaa !21
  call void @tr2tls_push_self(i64 noundef %68)
  store i32 0, ptr %19, align 4
  br label %69

69:                                               ; preds = %67, %22
  call void @llvm.lifetime.end.p0(i64 8, ptr %18) #9
  call void @llvm.lifetime.end.p0(i64 8, ptr %17) #9
  call void @llvm.lifetime.end.p0(i64 4, ptr %16) #9
  call void @llvm.lifetime.end.p0(i64 8, ptr %15) #9
  %70 = load i32, ptr %19, align 4
  switch i32 %70, label %72 [
    i32 0, label %71
    i32 1, label %71
  ]

71:                                               ; preds = %69, %69
  ret void

72:                                               ; preds = %69
  unreachable
}

; Function Attrs: nounwind uwtable
define dso_local void @trace2_region_enter_printf_fl(ptr noundef %0, i32 noundef %1, ptr noundef %2, ptr noundef %3, ptr noundef %4, ptr noundef %5, ...) #0 {
  %7 = alloca ptr, align 8
  %8 = alloca i32, align 4
  %9 = alloca ptr, align 8
  %10 = alloca ptr, align 8
  %11 = alloca ptr, align 8
  %12 = alloca ptr, align 8
  %13 = alloca [1 x %struct.__va_list_tag], align 16
  store ptr %0, ptr %7, align 8, !tbaa !4
  store i32 %1, ptr %8, align 4, !tbaa !9
  store ptr %2, ptr %9, align 8, !tbaa !4
  store ptr %3, ptr %10, align 8, !tbaa !4
  store ptr %4, ptr %11, align 8, !tbaa !72
  store ptr %5, ptr %12, align 8, !tbaa !4
  call void @llvm.lifetime.start.p0(i64 24, ptr %13) #9
  %14 = getelementptr inbounds [1 x %struct.__va_list_tag], ptr %13, i64 0, i64 0
  call void @llvm.va_start.p0(ptr %14)
  %15 = load ptr, ptr %7, align 8, !tbaa !4
  %16 = load i32, ptr %8, align 4, !tbaa !9
  %17 = load ptr, ptr %9, align 8, !tbaa !4
  %18 = load ptr, ptr %10, align 8, !tbaa !4
  %19 = load ptr, ptr %11, align 8, !tbaa !72
  %20 = load ptr, ptr %12, align 8, !tbaa !4
  %21 = getelementptr inbounds [1 x %struct.__va_list_tag], ptr %13, i64 0, i64 0
  call void @trace2_region_enter_printf_va_fl(ptr noundef %15, i32 noundef %16, ptr noundef %17, ptr noundef %18, ptr noundef %19, ptr noundef %20, ptr noundef %21)
  %22 = getelementptr inbounds [1 x %struct.__va_list_tag], ptr %13, i64 0, i64 0
  call void @llvm.va_end.p0(ptr %22)
  call void @llvm.lifetime.end.p0(i64 24, ptr %13) #9
  ret void
}