; Function Attrs: nounwind uwtable
define dso_local void @trace2_region_enter_printf_fl(ptr noundef %0, i32 noundef %1, ptr noundef %2, ptr noundef %3, ptr noundef %4, ptr noundef %5, ...) local_unnamed_addr #0 {
  %7 = alloca [1 x %struct.__va_list_tag], align 16
  call void @llvm.lifetime.start.p0(i64 24, ptr nonnull %7) #11
  call void @llvm.va_start.p0(ptr nonnull %7)
  %.b.i = load i1, ptr @trace2_enabled, align 4
  br i1 %.b.i, label %8, label %trace2_region_enter_printf_va_fl.exit

8:                                                ; preds = %6
  %9 = call i64 @getnanotime() #11
  %10 = udiv i64 %9, 1000
  %11 = call i64 @tr2tls_absolute_elapsed(i64 noundef %10) #11
  br label %12

12:                                               ; preds = %19, %8
  %indvars.iv.i = phi i64 [ 0, %8 ], [ %indvars.iv.next.i, %19 ]
  %.021.i = phi ptr [ @tr2_tgt_normal, %8 ], [ %21, %19 ]
  %13 = load ptr, ptr %.021.i, align 8, !tbaa !14
  %14 = call i32 @tr2_dst_trace_want(ptr noundef %13) #11
  %.not18.i = icmp eq i32 %14, 0
  br i1 %.not18.i, label %19, label %15

15:                                               ; preds = %12
  %16 = getelementptr inbounds nuw i8, ptr %.021.i, i64 184
  %17 = load ptr, ptr %16, align 8, !tbaa !70
  %.not19.i = icmp eq ptr %17, null
  br i1 %.not19.i, label %19, label %18

18:                                               ; preds = %15
  call void %17(ptr noundef %0, i32 noundef %1, i64 noundef %11, ptr noundef %2, ptr noundef %3, ptr noundef %4, ptr noundef %5, ptr noundef nonnull %7) #11
  br label %19

19:                                               ; preds = %18, %15, %12
  %indvars.iv.next.i = add nuw nsw i64 %indvars.iv.i, 1
  %20 = getelementptr inbounds nuw [4 x ptr], ptr @tr2_tgt_builtins, i64 0, i64 %indvars.iv.next.i
  %21 = load ptr, ptr %20, align 8, !tbaa !10
  %.not.i = icmp eq i64 %indvars.iv.next.i, 3
  br i1 %.not.i, label %22, label %12, !llvm.loop !71

22:                                               ; preds = %19
  call void @tr2tls_push_self(i64 noundef %10) #11
  br label %trace2_region_enter_printf_va_fl.exit

trace2_region_enter_printf_va_fl.exit:            ; preds = %6, %22
  call void @llvm.va_end.p0(ptr nonnull %7)
  call void @llvm.lifetime.end.p0(i64 24, ptr nonnull %7) #11
  ret void
}